target datalayout = "e-m:e-p270:32:32-p271:32:32-p272:64:64-i64:64-i128:128-f80:128-n8:16:32:64-S128"
target triple = "x86_64-pc-linux-gnu"

%struct._cms_NAMEDCOLORLIST_struct = type { i32, i32, i32, [33 x i8], [33 x i8], ptr, ptr }

; Function Attrs: nounwind uwtable
define hidden void @cmsFreeNamedColorList(ptr noundef %0) #0 {
  %2 = alloca ptr, align 8
  store ptr %0, ptr %2, align 8
  %3 = load ptr, ptr %2, align 8
  %4 = icmp eq ptr %3, null
  br i1 %4, label %5, label %6

5:                                                ; preds = %1
  br label %23

6:                                                ; preds = %1
  %7 = load ptr, ptr %2, align 8
  %8 = getelementptr inbounds %struct._cms_NAMEDCOLORLIST_struct, ptr %7, i32 0, i32 5
  %9 = load ptr, ptr %8, align 8
  %10 = icmp ne ptr %9, null
  br i1 %10, label %11, label %18

11:                                               ; preds = %6
  %12 = load ptr, ptr %2, align 8
  %13 = getelementptr inbounds %struct._cms_NAMEDCOLORLIST_struct, ptr %12, i32 0, i32 6
  %14 = load ptr, ptr %13, align 8
  %15 = load ptr, ptr %2, align 8
  %16 = getelementptr inbounds %struct._cms_NAMEDCOLORLIST_struct, ptr %15, i32 0, i32 5
  %17 = load ptr, ptr %16, align 8
  call void @_cmsFree(ptr noundef %14, ptr noundef %17)
  br label %18

18:                                               ; preds = %11, %6
  %19 = load ptr, ptr %2, align 8
  %20 = getelementptr inbounds %struct._cms_NAMEDCOLORLIST_struct, ptr %19, i32 0, i32 6
  %21 = load ptr, ptr %20, align 8
  %22 = load ptr, ptr %2, align 8
  call void @_cmsFree(ptr noundef %21, ptr noundef %22)
  br label %23

23:                                               ; preds = %18, %5
  ret void
}

; Function Attrs: nounwind uwtable
define internal i32 @GrowNamedColorList(ptr noundef %0) #0 {
  %2 = alloca i32, align 4
  %3 = alloca ptr, align 8
  %4 = alloca i32, align 4
  %5 = alloca ptr, align 8
  store ptr %0, ptr %3, align 8
  %6 = load ptr, ptr %3, align 8
  %7 = icmp eq ptr %6, null
  br i1 %7, label %8, label %9

8:                                                ; preds = %1
  store i32 0, ptr %2, align 4
  br label %54

9:                                                ; preds = %1
  %10 = load ptr, ptr %3, align 8
  %11 = getelementptr inbounds %struct._cms_NAMEDCOLORLIST_struct, ptr %10, i32 0, i32 1
  %12 = load i32, ptr %11, align 4
  %13 = icmp eq i32 %12, 0
  br i1 %13, label %14, label %15

14:                                               ; preds = %9
  store i32 64, ptr %4, align 4
  br label %20

15:                                               ; preds = %9
  %16 = load ptr, ptr %3, align 8
  %17 = getelementptr inbounds %struct._cms_NAMEDCOLORLIST_struct, ptr %16, i32 0, i32 1
  %18 = load i32, ptr %17, align 4
  %19 = mul i32 %18, 2
  store i32 %19, ptr %4, align 4
  br label %20

20:                                               ; preds = %15, %14
  %21 = load i32, ptr %4, align 4
  %22 = icmp ugt i32 %21, 102400
  br i1 %22, label %23, label %32

23:                                               ; preds = %20
  %24 = load ptr, ptr %3, align 8
  %25 = getelementptr inbounds %struct._cms_NAMEDCOLORLIST_struct, ptr %24, i32 0, i32 6
  %26 = load ptr, ptr %25, align 8
  %27 = load ptr, ptr %3, align 8
  %28 = getelementptr inbounds %struct._cms_NAMEDCOLORLIST_struct, ptr %27, i32 0, i32 5
  %29 = load ptr, ptr %28, align 8
  call void @_cmsFree(ptr noundef %26, ptr noundef %29)
  %30 = load ptr, ptr %3, align 8
  %31 = getelementptr inbounds %struct._cms_NAMEDCOLORLIST_struct, ptr %30, i32 0, i32 5
  store ptr null, ptr %31, align 8
  store i32 0, ptr %2, align 4
  br label %54

32:                                               ; preds = %20
  %33 = load ptr, ptr %3, align 8
  %34 = getelementptr inbounds %struct._cms_NAMEDCOLORLIST_struct, ptr %33, i32 0, i32 6
  %35 = load ptr, ptr %34, align 8
  %36 = load ptr, ptr %3, align 8
  %37 = getelementptr inbounds %struct._cms_NAMEDCOLORLIST_struct, ptr %36, i32 0, i32 5
  %38 = load ptr, ptr %37, align 8
  %39 = load i32, ptr %4, align 4
  %40 = zext i32 %39 to i64
  %41 = mul i64 %40, 294
  %42 = trunc i64 %41 to i32
  %43 = call ptr @_cmsRealloc(ptr noundef %35, ptr noundef %38, i32 noundef %42)
  store ptr %43, ptr %5, align 8
  %44 = load ptr, ptr %5, align 8
  %45 = icmp eq ptr %44, null
  br i1 %45, label %46, label %47

46:                                               ; preds = %32
  store i32 0, ptr %2, align 4
  br label %54

47:                                               ; preds = %32
  %48 = load ptr, ptr %5, align 8
  %49 = load ptr, ptr %3, align 8
  %50 = getelementptr inbounds %struct._cms_NAMEDCOLORLIST_struct, ptr %49, i32 0, i32 5
  store ptr %48, ptr %50, align 8
  %51 = load i32, ptr %4, align 4
  %52 = load ptr, ptr %3, align 8
  %53 = getelementptr inbounds %struct._cms_NAMEDCOLORLIST_struct, ptr %52, i32 0, i32 1
  store i32 %51, ptr %53, align 4
  store i32 1, ptr %2, align 4
  br label %54

54:                                               ; preds = %47, %46, %23, %8
  %55 = load i32, ptr %2, align 4
  ret i32 %55
}

; Function Attrs: nounwind uwtable
define hidden ptr @cmsDupNamedColorList(ptr noundef %0) #0 {
  %2 = alloca ptr, align 8
  %3 = alloca ptr, align 8
  %4 = alloca ptr, align 8
  store ptr %0, ptr %3, align 8
  %5 = load ptr, ptr %3, align 8
  %6 = icmp eq ptr %5, null
  br i1 %6, label %7, label %8

7:                                                ; preds = %1
  store ptr null, ptr %2, align 8
  br label %79

8:                                                ; preds = %1
  %9 = load ptr, ptr %3, align 8
  %10 = getelementptr inbounds %struct._cms_NAMEDCOLORLIST_struct, ptr %9, i32 0, i32 6
  %11 = load ptr, ptr %10, align 8
  %12 = load ptr, ptr %3, align 8
  %13 = getelementptr inbounds %struct._cms_NAMEDCOLORLIST_struct, ptr %12, i32 0, i32 0
  %14 = load i32, ptr %13, align 8
  %15 = load ptr, ptr %3, align 8
  %16 = getelementptr inbounds %struct._cms_NAMEDCOLORLIST_struct, ptr %15, i32 0, i32 2
  %17 = load i32, ptr %16, align 8
  %18 = load ptr, ptr %3, align 8
  %19 = getelementptr inbounds %struct._cms_NAMEDCOLORLIST_struct, ptr %18, i32 0, i32 3
  %20 = getelementptr inbounds [33 x i8], ptr %19, i64 0, i64 0
  %21 = load ptr, ptr %3, align 8
  %22 = getelementptr inbounds %struct._cms_NAMEDCOLORLIST_struct, ptr %21, i32 0, i32 4
  %23 = getelementptr inbounds [33 x i8], ptr %22, i64 0, i64 0
  %24 = call ptr @cmsAllocNamedColorList(ptr noundef %11, i32 noundef %14, i32 noundef %17, ptr noundef %20, ptr noundef %23)
  store ptr %24, ptr %4, align 8
  %25 = load ptr, ptr %4, align 8
  %26 = icmp eq ptr %25, null
  br i1 %26, label %27, label %28

27:                                               ; preds = %8
  store ptr null, ptr %2, align 8
  br label %79

28:                                               ; preds = %8
  br label %29

29:                                               ; preds = %43, %28
  %30 = load ptr, ptr %4, align 8
  %31 = getelementptr inbounds %struct._cms_NAMEDCOLORLIST_struct, ptr %30, i32 0, i32 1
  %32 = load i32, ptr %31, align 4
  %33 = load ptr, ptr %3, align 8
  %34 = getelementptr inbounds %struct._cms_NAMEDCOLORLIST_struct, ptr %33, i32 0, i32 1
  %35 = load i32, ptr %34, align 4
  %36 = icmp ult i32 %32, %35
  br i1 %36, label %37, label %44

37:                                               ; preds = %29
  %38 = load ptr, ptr %4, align 8
  %39 = call i32 @GrowNamedColorList(ptr noundef %38)
  %40 = icmp ne i32 %39, 0
  br i1 %40, label %43, label %41

41:                                               ; preds = %37
  %42 = load ptr, ptr %4, align 8
  call void @cmsFreeNamedColorList(ptr noundef %42)
  store ptr null, ptr %2, align 8
  br label %79

43:                                               ; preds = %37
  br label %29, !llvm.loop !15

44:                                               ; preds = %29
  %45 = load ptr, ptr %4, align 8
  %46 = getelementptr inbounds %struct._cms_NAMEDCOLORLIST_struct, ptr %45, i32 0, i32 3
  %47 = getelementptr inbounds [33 x i8], ptr %46, i64 0, i64 0
  %48 = load ptr, ptr %3, align 8
  %49 = getelementptr inbounds %struct._cms_NAMEDCOLORLIST_struct, ptr %48, i32 0, i32 3
  %50 = getelementptr inbounds [33 x i8], ptr %49, i64 0, i64 0
  call void @llvm.memmove.p0.p0.i64(ptr align 4 %47, ptr align 4 %50, i64 33, i1 false)
  %51 = load ptr, ptr %4, align 8
  %52 = getelementptr inbounds %struct._cms_NAMEDCOLORLIST_struct, ptr %51, i32 0, i32 4
  %53 = getelementptr inbounds [33 x i8], ptr %52, i64 0, i64 0
  %54 = load ptr, ptr %3, align 8
  %55 = getelementptr inbounds %struct._cms_NAMEDCOLORLIST_struct, ptr %54, i32 0, i32 4
  %56 = getelementptr inbounds [33 x i8], ptr %55, i64 0, i64 0
  call void @llvm.memmove.p0.p0.i64(ptr align 1 %53, ptr align 1 %56, i64 33, i1 false)
  %57 = load ptr, ptr %3, align 8
  %58 = getelementptr inbounds %struct._cms_NAMEDCOLORLIST_struct, ptr %57, i32 0, i32 2
  %59 = load i32, ptr %58, align 8
  %60 = load ptr, ptr %4, align 8
  %61 = getelementptr inbounds %struct._cms_NAMEDCOLORLIST_struct, ptr %60, i32 0, i32 2
  store i32 %59, ptr %61, align 8
  %62 = load ptr, ptr %4, align 8
  %63 = getelementptr inbounds %struct._cms_NAMEDCOLORLIST_struct, ptr %62, i32 0, i32 5
  %64 = load ptr, ptr %63, align 8
  %65 = load ptr, ptr %3, align 8
  %66 = getelementptr inbounds %struct._cms_NAMEDCOLORLIST_struct, ptr %65, i32 0, i32 5
  %67 = load ptr, ptr %66, align 8
  %68 = load ptr, ptr %3, align 8
  %69 = getelementptr inbounds %struct._cms_NAMEDCOLORLIST_struct, ptr %68, i32 0, i32 0
  %70 = load i32, ptr %69, align 8
  %71 = zext i32 %70 to i64
  %72 = mul i64 %71, 294
  call void @llvm.memmove.p0.p0.i64(ptr align 2 %64, ptr align 2 %67, i64 %72, i1 false)
  %73 = load ptr, ptr %3, align 8
  %74 = getelementptr inbounds %struct._cms_NAMEDCOLORLIST_struct, ptr %73, i32 0, i32 0
  %75 = load i32, ptr %74, align 8
  %76 = load ptr, ptr %4, align 8
  %77 = getelementptr inbounds %struct._cms_NAMEDCOLORLIST_struct, ptr %76, i32 0, i32 0
  store i32 %75, ptr %77, align 8
  %78 = load ptr, ptr %4, align 8
  store ptr %78, ptr %2, align 8
  br label %79

79:                                               ; preds = %44, %41, %27, %7
  %80 = load ptr, ptr %2, align 8
  ret ptr %80
}