; Function Attrs: nounwind uwtable
define hidden ptr @cmsDupNamedColorList(ptr noundef readonly %0) local_unnamed_addr #0 {
  %2 = icmp eq ptr %0, null
  br i1 %2, label %46, label %3

3:                                                ; preds = %1
  %4 = getelementptr inbounds i8, ptr %0, i64 88
  %5 = load ptr, ptr %4, align 8
  %6 = load i32, ptr %0, align 8
  %7 = getelementptr inbounds i8, ptr %0, i64 8
  %8 = load i32, ptr %7, align 8
  %9 = getelementptr inbounds i8, ptr %0, i64 12
  %10 = getelementptr inbounds i8, ptr %0, i64 45
  %11 = tail call ptr @cmsAllocNamedColorList(ptr noundef %5, i32 noundef %6, i32 noundef %8, ptr noundef nonnull %9, ptr noundef nonnull %10)
  %12 = icmp eq ptr %11, null
  br i1 %12, label %46, label %.preheader

.preheader:                                       ; preds = %3
  %13 = getelementptr inbounds i8, ptr %11, i64 4
  %14 = getelementptr inbounds i8, ptr %0, i64 4
  %15 = load i32, ptr %13, align 4
  %16 = load i32, ptr %14, align 4
  %17 = icmp ult i32 %15, %16
  br i1 %17, label %.lr.ph, label %.preheader.._crit_edge_crit_edge

.preheader.._crit_edge_crit_edge:                 ; preds = %.preheader
  %.phi.trans.insert = getelementptr inbounds i8, ptr %11, i64 80
  %.pre37 = load ptr, ptr %.phi.trans.insert, align 8
  br label %._crit_edge

.lr.ph:                                           ; preds = %.preheader
  %18 = getelementptr inbounds i8, ptr %11, i64 88
  %19 = getelementptr inbounds i8, ptr %11, i64 80
  %.pre = load ptr, ptr %19, align 8
  br label %20

20:                                               ; preds = %.lr.ph, %GrowNamedColorList.exit
  %21 = phi ptr [ %.pre, %.lr.ph ], [ %28, %GrowNamedColorList.exit ]
  %22 = phi i32 [ %15, %.lr.ph ], [ %.015.i, %GrowNamedColorList.exit ]
  %23 = icmp eq i32 %22, 0
  %24 = shl i32 %22, 1
  %.015.i = select i1 %23, i32 64, i32 %24
  %25 = icmp ugt i32 %.015.i, 102400
  %26 = load ptr, ptr %18, align 8
  br i1 %25, label %.loopexit.thread, label %27

.loopexit.thread:                                 ; preds = %20
  tail call void @_cmsFree(ptr noundef %26, ptr noundef %21) #12
  store ptr null, ptr %19, align 8
  br label %cmsFreeNamedColorList.exit

27:                                               ; preds = %20
  %narrow.i = mul nuw nsw i32 %.015.i, 294
  %28 = tail call ptr @_cmsRealloc(ptr noundef %26, ptr noundef %21, i32 noundef %narrow.i) #12
  %29 = icmp eq ptr %28, null
  br i1 %29, label %.loopexit, label %GrowNamedColorList.exit

GrowNamedColorList.exit:                          ; preds = %27
  store ptr %28, ptr %19, align 8
  store i32 %.015.i, ptr %13, align 4
  %30 = load i32, ptr %14, align 4
  %31 = icmp ult i32 %.015.i, %30
  br i1 %31, label %20, label %._crit_edge, !llvm.loop !16

.loopexit:                                        ; preds = %27
  %.pre38 = load ptr, ptr %19, align 8
  %.not.i = icmp eq ptr %.pre38, null
  br i1 %.not.i, label %cmsFreeNamedColorList.exit, label %32

32:                                               ; preds = %.loopexit
  %33 = load ptr, ptr %18, align 8
  tail call void @_cmsFree(ptr noundef %33, ptr noundef nonnull %.pre38) #12
  br label %cmsFreeNamedColorList.exit

cmsFreeNamedColorList.exit:                       ; preds = %.loopexit.thread, %.loopexit, %32
  %34 = load ptr, ptr %18, align 8
  tail call void @_cmsFree(ptr noundef %34, ptr noundef nonnull %11) #12
  br label %46

._crit_edge:                                      ; preds = %GrowNamedColorList.exit, %.preheader.._crit_edge_crit_edge
  %35 = phi ptr [ %.pre37, %.preheader.._crit_edge_crit_edge ], [ %28, %GrowNamedColorList.exit ]
  %36 = getelementptr inbounds i8, ptr %11, i64 12
  tail call void @llvm.memmove.p0.p0.i64(ptr noundef nonnull align 4 dereferenceable(33) %36, ptr noundef nonnull align 4 dereferenceable(33) %9, i64 33, i1 false)
  %37 = getelementptr inbounds i8, ptr %11, i64 45
  tail call void @llvm.memmove.p0.p0.i64(ptr noundef nonnull align 1 dereferenceable(33) %37, ptr noundef nonnull align 1 dereferenceable(33) %10, i64 33, i1 false)
  %38 = load i32, ptr %7, align 8
  %39 = getelementptr inbounds i8, ptr %11, i64 8
  store i32 %38, ptr %39, align 8
  %40 = getelementptr inbounds i8, ptr %0, i64 80
  %41 = load ptr, ptr %40, align 8
  %42 = load i32, ptr %0, align 8
  %43 = zext i32 %42 to i64
  %44 = mul nuw nsw i64 %43, 294
  tail call void @llvm.memmove.p0.p0.i64(ptr align 2 %35, ptr align 2 %41, i64 %44, i1 false)
  %45 = load i32, ptr %0, align 8
  store i32 %45, ptr %11, align 8
  br label %46

46:                                               ; preds = %3, %1, %._crit_edge, %cmsFreeNamedColorList.exit
  %.0 = phi ptr [ null, %cmsFreeNamedColorList.exit ], [ %11, %._crit_edge ], [ null, %1 ], [ null, %3 ]
  ret ptr %.0
}